; Function Attrs: mustprogress nofree norecurse nosync nounwind null_pointer_is_valid sspstrong willreturn memory(read, inaccessiblemem: none) uwtable
define noundef zeroext i1 @_ZN9ProtoNode8isHiddenEP11_proto_node(ptr noundef readonly captures(address_is_null) %0) local_unnamed_addr #2 align 2 {
  %.not.i = icmp eq ptr %0, null
  br i1 %.not.i, label %_ZL20proto_item_is_hiddenP11_proto_node.exit, label %2

2:                                                ; preds = %1
  %3 = getelementptr inbounds nuw i8, ptr %0, i64 40
  %4 = load ptr, ptr %3, align 8
  %.not7.i = icmp eq ptr %4, null
  br i1 %.not7.i, label %_ZL20proto_item_is_hiddenP11_proto_node.exit, label %5

5:                                                ; preds = %2
  %6 = getelementptr inbounds nuw i8, ptr %4, i64 28
  %7 = load i32, ptr %6, align 4
  %8 = and i32 %7, 1
  %9 = icmp ne i32 %8, 0
  br label %_ZL20proto_item_is_hiddenP11_proto_node.exit

_ZL20proto_item_is_hiddenP11_proto_node.exit:     ; preds = %1, %2, %5
  %.0.i = phi i1 [ %9, %5 ], [ true, %2 ], [ true, %1 ]
  %10 = load i8, ptr getelementptr inbounds nuw (i8, ptr @prefs, i64 380), align 4, !range !6
  %11 = trunc nuw i8 %10 to i1
  %12 = xor i1 %11, true
  %13 = select i1 %.0.i, i1 %12, i1 false
  ret i1 %13
}